target datalayout = "e-m:e-p270:32:32-p271:32:32-p272:64:64-i64:64-i128:128-f80:128-n8:16:32:64-S128"
target triple = "x86_64-pc-linux-gnu"

%struct._zend_array = type { %struct._zend_refcounted_h, %union.anon.0, i32, %union.anon.1, i32, i32, i32, i32, i64, ptr }
%struct._zend_refcounted_h = type { i32, %union.anon }
%union.anon = type { i32 }
%union.anon.0 = type { i32 }
%union.anon.1 = type { ptr }
%struct._zval_struct = type { %union._zend_value, %union.anon.3, %union.anon.6 }
%union._zend_value = type { i64 }
%union.anon.3 = type { i32 }
%union.anon.6 = type { i32 }

@stream_filters_hash = internal global %struct._zend_array zeroinitializer, align 8
@zend_string_init_interned = external global ptr, align 8

; Function Attrs: nounwind uwtable
define i32 @php_stream_filter_register_factory(ptr noundef %0, ptr noundef %1) #0 {
  %3 = alloca ptr, align 8
  %4 = alloca i32, align 4
  %5 = alloca ptr, align 8
  %6 = alloca i8, align 1
  %7 = alloca ptr, align 8
  %8 = alloca ptr, align 8
  %9 = alloca ptr, align 8
  %10 = alloca ptr, align 8
  %11 = alloca %struct._zval_struct, align 8
  %12 = alloca ptr, align 8
  %13 = alloca ptr, align 8
  %14 = alloca ptr, align 8
  %15 = alloca i32, align 4
  %16 = alloca ptr, align 8
  store ptr %0, ptr %13, align 8
  store ptr %1, ptr %14, align 8
  %17 = load ptr, ptr @zend_string_init_interned, align 8
  %18 = load ptr, ptr %13, align 8
  %19 = load ptr, ptr %13, align 8
  %20 = call i64 @strlen(ptr noundef %19) #11
  %21 = call ptr %17(ptr noundef %18, i64 noundef %20, i1 noundef zeroext true)
  store ptr %21, ptr %16, align 8
  %22 = load ptr, ptr %16, align 8
  %23 = load ptr, ptr %14, align 8
  store ptr @stream_filters_hash, ptr %8, align 8
  store ptr %22, ptr %9, align 8
  store ptr %23, ptr %10, align 8
  %24 = load ptr, ptr %10, align 8
  store ptr %24, ptr %11, align 8
  %25 = getelementptr inbounds %struct._zval_struct, ptr %11, i32 0, i32 1
  store i32 13, ptr %25, align 8
  %26 = load ptr, ptr %8, align 8
  %27 = load ptr, ptr %9, align 8
  %28 = call ptr @zend_hash_add(ptr noundef %26, ptr noundef %27, ptr noundef %11) #12
  store ptr %28, ptr %12, align 8
  %29 = load ptr, ptr %12, align 8
  %30 = icmp ne ptr %29, null
  br i1 %30, label %31, label %37

31:                                               ; preds = %2
  %32 = load ptr, ptr %12, align 8
  %33 = load ptr, ptr %32, align 8
  %34 = icmp ne ptr %33, null
  call void @llvm.assume(i1 %34)
  %35 = load ptr, ptr %12, align 8
  %36 = load ptr, ptr %35, align 8
  store ptr %36, ptr %7, align 8
  br label %38

37:                                               ; preds = %2
  store ptr null, ptr %7, align 8
  br label %38

38:                                               ; preds = %37, %31
  %39 = load ptr, ptr %7, align 8
  %40 = icmp ne ptr %39, null
  %41 = select i1 %40, i32 0, i32 -1
  store i32 %41, ptr %15, align 4
  %42 = load ptr, ptr %16, align 8
  store ptr %42, ptr %5, align 8
  store i8 1, ptr %6, align 1
  %43 = load ptr, ptr %5, align 8
  %44 = getelementptr inbounds %struct._zend_refcounted_h, ptr %43, i32 0, i32 1
  %45 = load i32, ptr %44, align 4
  store i32 %45, ptr %4, align 4
  %46 = load i32, ptr %4, align 4
  %47 = and i32 %46, 1008
  %48 = and i32 %47, 64
  %49 = icmp ne i32 %48, 0
  br i1 %49, label %68, label %50

50:                                               ; preds = %38
  %51 = load ptr, ptr %5, align 8
  store ptr %51, ptr %3, align 8
  %52 = load ptr, ptr %3, align 8
  %53 = load i32, ptr %52, align 4
  %54 = icmp ugt i32 %53, 0
  call void @llvm.assume(i1 %54)
  %55 = load ptr, ptr %3, align 8
  %56 = load i32, ptr %55, align 4
  %57 = add i32 %56, -1
  store i32 %57, ptr %55, align 4
  %58 = icmp eq i32 %57, 0
  br i1 %58, label %59, label %67

59:                                               ; preds = %50
  %60 = load i8, ptr %6, align 1
  %61 = trunc i8 %60 to i1
  br i1 %61, label %62, label %64

62:                                               ; preds = %59
  %63 = load ptr, ptr %5, align 8
  call void @free(ptr noundef %63) #12
  br label %66

64:                                               ; preds = %59
  %65 = load ptr, ptr %5, align 8
  call void @_efree(ptr noundef %65) #12
  br label %66

66:                                               ; preds = %64, %62
  br label %67

67:                                               ; preds = %66, %50
  br label %68

68:                                               ; preds = %67, %38
  %69 = load i32, ptr %15, align 4
  ret i32 %69
}