; Function Attrs: nounwind uwtable
define i32 @php_stream_filter_register_factory(ptr noundef %0, ptr noundef %1) local_unnamed_addr #2 {
  %3 = alloca %struct._zval_struct, align 8
  %4 = load ptr, ptr @zend_string_init_interned, align 8
  %5 = tail call i64 @strlen(ptr noundef nonnull dereferenceable(1) %0) #13
  %6 = tail call ptr %4(ptr noundef %0, i64 noundef %5, i1 noundef zeroext true) #14
  store ptr %1, ptr %3, align 8
  %7 = getelementptr inbounds i8, ptr %3, i64 8
  store i32 13, ptr %7, align 8
  %8 = call ptr @zend_hash_add(ptr noundef nonnull @stream_filters_hash, ptr noundef %6, ptr noundef nonnull %3) #14
  %9 = getelementptr inbounds i8, ptr %6, i64 4
  %10 = load i32, ptr %9, align 4
  %11 = and i32 %10, 64
  %.not22 = icmp eq i32 %11, 0
  br i1 %.not22, label %12, label %18

12:                                               ; preds = %2
  %13 = load i32, ptr %6, align 4
  %14 = icmp ne i32 %13, 0
  call void @llvm.assume(i1 %14)
  %15 = add i32 %13, -1
  store i32 %15, ptr %6, align 4
  %16 = icmp eq i32 %15, 0
  br i1 %16, label %17, label %18

17:                                               ; preds = %12
  call void @free(ptr noundef nonnull %6) #14
  br label %18

18:                                               ; preds = %12, %17, %2
  %.not = icmp eq ptr %8, null
  %19 = sext i1 %.not to i32
  ret i32 %19
}